target datalayout = "e-m:e-p270:32:32-p271:32:32-p272:64:64-i64:64-i128:128-f80:128-n8:16:32:64-S128"
target triple = "x86_64-pc-linux-gnu"

%struct._zend_refcounted_h = type { i32, %union.anon }
%union.anon = type { i32 }
%struct._zval_struct = type { %union._zend_value, %union.anon.3, %union.anon.6 }
%union._zend_value = type { i64 }
%union.anon.3 = type { i32 }
%union.anon.6 = type { i32 }
%struct._zend_resource = type { %struct._zend_refcounted_h, i64, i32, ptr }
%struct._php_stream = type { ptr, ptr, %struct._php_stream_filter_chain, %struct._php_stream_filter_chain, ptr, ptr, %struct._zval_struct, i16, [16 x i8], i32, ptr, ptr, ptr, ptr, i64, ptr, i64, i64, i64, i64, ptr }
%struct._php_stream_filter_chain = type { ptr, ptr, ptr }
%struct._php_stream_context = type { ptr, %struct._zval_struct, ptr }

; Function Attrs: nounwind uwtable
define ptr @php_stream_context_set(ptr noundef %0, ptr noundef %1) #0 {
  %3 = alloca ptr, align 8
  %4 = alloca ptr, align 8
  %5 = alloca ptr, align 8
  %6 = alloca ptr, align 8
  store ptr %0, ptr %4, align 8
  store ptr %1, ptr %5, align 8
  %7 = load ptr, ptr %4, align 8
  %8 = getelementptr inbounds %struct._php_stream, ptr %7, i32 0, i32 13
  %9 = load ptr, ptr %8, align 8
  %10 = icmp ne ptr %9, null
  br i1 %10, label %11, label %17

11:                                               ; preds = %2
  %12 = load ptr, ptr %4, align 8
  %13 = getelementptr inbounds %struct._php_stream, ptr %12, i32 0, i32 13
  %14 = load ptr, ptr %13, align 8
  %15 = getelementptr inbounds %struct._zend_resource, ptr %14, i32 0, i32 3
  %16 = load ptr, ptr %15, align 8
  br label %18

17:                                               ; preds = %2
  br label %18

18:                                               ; preds = %17, %11
  %19 = phi ptr [ %16, %11 ], [ null, %17 ]
  store ptr %19, ptr %6, align 8
  %20 = load ptr, ptr %5, align 8
  %21 = icmp ne ptr %20, null
  br i1 %21, label %22, label %35

22:                                               ; preds = %18
  %23 = load ptr, ptr %5, align 8
  %24 = getelementptr inbounds %struct._php_stream_context, ptr %23, i32 0, i32 2
  %25 = load ptr, ptr %24, align 8
  %26 = load ptr, ptr %4, align 8
  %27 = getelementptr inbounds %struct._php_stream, ptr %26, i32 0, i32 13
  store ptr %25, ptr %27, align 8
  %28 = load ptr, ptr %5, align 8
  %29 = getelementptr inbounds %struct._php_stream_context, ptr %28, i32 0, i32 2
  %30 = load ptr, ptr %29, align 8
  %31 = getelementptr inbounds %struct._zend_resource, ptr %30, i32 0, i32 0
  store ptr %31, ptr %3, align 8
  %32 = load ptr, ptr %3, align 8
  %33 = load i32, ptr %32, align 4
  %34 = add i32 %33, 1
  store i32 %34, ptr %32, align 4
  br label %38

35:                                               ; preds = %18
  %36 = load ptr, ptr %4, align 8
  %37 = getelementptr inbounds %struct._php_stream, ptr %36, i32 0, i32 13
  store ptr null, ptr %37, align 8
  br label %38

38:                                               ; preds = %35, %22
  %39 = load ptr, ptr %6, align 8
  %40 = icmp ne ptr %39, null
  br i1 %40, label %41, label %46

41:                                               ; preds = %38
  %42 = load ptr, ptr %6, align 8
  %43 = getelementptr inbounds %struct._php_stream_context, ptr %42, i32 0, i32 2
  %44 = load ptr, ptr %43, align 8
  %45 = call i32 @zend_list_delete(ptr noundef %44)
  br label %46

46:                                               ; preds = %41, %38
  %47 = load ptr, ptr %6, align 8
  ret ptr %47
}