; Function Attrs: nounwind uwtable
define ptr @php_stream_context_set(ptr nocapture noundef %0, ptr noundef readonly %1) local_unnamed_addr #2 {
  %3 = getelementptr inbounds i8, ptr %0, i64 144
  %4 = load ptr, ptr %3, align 8
  %.not = icmp eq ptr %4, null
  br i1 %.not, label %8, label %5

5:                                                ; preds = %2
  %6 = getelementptr inbounds i8, ptr %4, i64 24
  %7 = load ptr, ptr %6, align 8
  br label %8

8:                                                ; preds = %2, %5
  %9 = phi ptr [ %7, %5 ], [ null, %2 ]
  %.not13 = icmp eq ptr %1, null
  br i1 %.not13, label %15, label %10

10:                                               ; preds = %8
  %11 = getelementptr inbounds i8, ptr %1, i64 24
  %12 = load ptr, ptr %11, align 8
  store ptr %12, ptr %3, align 8
  %13 = load i32, ptr %12, align 4
  %14 = add i32 %13, 1
  store i32 %14, ptr %12, align 4
  br label %16

15:                                               ; preds = %8
  store ptr null, ptr %3, align 8
  br label %16

16:                                               ; preds = %15, %10
  %.not14 = icmp eq ptr %9, null
  br i1 %.not14, label %21, label %17

17:                                               ; preds = %16
  %18 = getelementptr inbounds i8, ptr %9, i64 24
  %19 = load ptr, ptr %18, align 8
  %20 = tail call i32 @zend_list_delete(ptr noundef %19) #27
  br label %21

21:                                               ; preds = %17, %16
  ret ptr %9
}